target datalayout = "e-m:e-p270:32:32-p271:32:32-p272:64:64-i64:64-i128:128-f80:128-n8:16:32:64-S128"
target triple = "x86_64-pc-linux-gnu"

%"class.std::__1::basic_string_view" = type { ptr, i64 }
%"class.(anonymous namespace)::itanium_demangle::Node.base" = type <{ ptr, i8, i16 }>
%"struct.(anonymous namespace)::itanium_demangle::NameWithTemplateArgs" = type { %"class.(anonymous namespace)::itanium_demangle::Node.base", ptr, ptr }

; Function Attrs: mustprogress uwtable
define internal { ptr, i64 } @_ZNK12_GLOBAL__N_116itanium_demangle20NameWithTemplateArgs11getBaseNameEv(ptr noundef nonnull align 8 dereferenceable(32) %0) unnamed_addr #3 align 2 {
  %2 = alloca %"class.std::__1::basic_string_view", align 8
  %3 = alloca ptr, align 8
  store ptr %0, ptr %3, align 8, !tbaa !108
  %4 = load ptr, ptr %3, align 8
  %5 = getelementptr inbounds nuw %"struct.(anonymous namespace)::itanium_demangle::NameWithTemplateArgs", ptr %4, i32 0, i32 1
  %6 = load ptr, ptr %5, align 8, !tbaa !591
  %7 = load ptr, ptr %6, align 8, !tbaa !232
  %8 = getelementptr inbounds ptr, ptr %7, i64 5
  %9 = load ptr, ptr %8, align 8
  %10 = call { ptr, i64 } %9(ptr noundef nonnull align 8 dereferenceable(11) %6)
  %11 = getelementptr inbounds nuw { ptr, i64 }, ptr %2, i32 0, i32 0
  %12 = extractvalue { ptr, i64 } %10, 0
  store ptr %12, ptr %11, align 8
  %13 = getelementptr inbounds nuw { ptr, i64 }, ptr %2, i32 0, i32 1
  %14 = extractvalue { ptr, i64 } %10, 1
  store i64 %14, ptr %13, align 8
  %15 = load { ptr, i64 }, ptr %2, align 8
  ret { ptr, i64 } %15
}